target datalayout = "e-m:e-p270:32:32-p271:32:32-p272:64:64-i64:64-i128:128-f80:128-n8:16:32:64-S128"
target triple = "x86_64-unknown-linux-gnu"

%struct.QTailQLink = type { ptr, ptr }
%struct.BlockDriverState = type { i32, i8, i8, i8, i8, i8, ptr, ptr, ptr, %struct.anon.0, i8, [4096 x i8], [4096 x i8], [4096 x i8], [16 x i8], ptr, [4096 x i8], %struct.BlockLimits, i32, i32, i32, i32, [32 x i8], %union.anon, %union.anon.1, %union.anon.2, i32, [16 x %struct.anon.3], ptr, %struct.anon.4, ptr, ptr, %struct.anon.5, ptr, ptr, i32, ptr, i64, i64, %struct.QemuMutex, %struct.anon.6, %struct.Stat64, i32, i32, i32, i32, i32, i32, %struct.QemuMutex, %struct.anon.7, %struct.CoQueue, i8, i32, i8, %struct.CoMutex, ptr, ptr }
%struct.anon.0 = type { ptr }
%struct.BlockLimits = type { i32, i64, i32, i64, i32, i32, i32, i64, i32, i64, i64, i32, i8, i32, i32, i32, i32, i32, i32, i32 }
%union.anon = type { %struct.QTailQLink }
%union.anon.1 = type { %struct.QTailQLink }
%union.anon.2 = type { %struct.QTailQLink }
%struct.anon.3 = type { ptr }
%struct.anon.4 = type { ptr }
%struct.anon.5 = type { ptr }
%struct.anon.6 = type { ptr }
%struct.Stat64 = type { i64 }
%struct.QemuMutex = type { %union.pthread_mutex_t, i8 }
%union.pthread_mutex_t = type { %struct.__pthread_mutex_s }
%struct.__pthread_mutex_s = type { i32, i32, i32, i32, i32, i16, i16, %struct.__pthread_internal_list }
%struct.__pthread_internal_list = type { ptr, ptr }
%struct.anon.7 = type { ptr }
%struct.CoQueue = type { %struct.anon.8 }
%struct.anon.8 = type { ptr, ptr }
%struct.CoMutex = type { i32, ptr, %struct.anon.9, %struct.anon.9, i32, i32, ptr }
%struct.anon.9 = type { ptr }
%struct.BDRVQuorumState = type { ptr, i32, i32, i32, i8, i8, i32 }
%struct.BdrvChild = type { ptr, ptr, ptr, i32, ptr, i64, i64, i8, i8, %struct.anon.10, %struct.anon.11 }
%struct.anon.10 = type { ptr, ptr }
%struct.anon.11 = type { ptr, ptr }
%struct.QuorumAIOCB = type { ptr, ptr, i64, i64, i32, ptr, ptr, i32, i32, i32, %struct.QuorumVotes, i8, i32, i32 }
%struct.QuorumVotes = type { %struct.anon.15, ptr }
%struct.anon.15 = type { ptr }
%struct.QuorumCo = type { ptr, i32 }
%struct.QuorumChildRequest = type { ptr, %struct.QEMUIOVector, ptr, i32, ptr }
%struct.QEMUIOVector = type { ptr, i32, %union.anon.16 }
%union.anon.16 = type { %struct.anon.17 }
%struct.anon.17 = type { i32, %struct.iovec }
%struct.iovec = type { ptr, i64 }
%struct.anon.18 = type { [12 x i8], i64 }

; Function Attrs: nounwind sspstrong uwtable
define internal i32 @read_quorum_children(ptr noundef %acb) #0 {
entry:
  %acb.addr = alloca ptr, align 8
  %s = alloca ptr, align 8
  %i = alloca i32, align 4
  %co = alloca ptr, align 8
  %data = alloca %struct.QuorumCo, align 8
  store ptr %acb, ptr %acb.addr, align 8
  %0 = load ptr, ptr %acb.addr, align 8
  %bs = getelementptr inbounds %struct.QuorumAIOCB, ptr %0, i32 0, i32 0
  %1 = load ptr, ptr %bs, align 8
  %opaque = getelementptr inbounds %struct.BlockDriverState, ptr %1, i32 0, i32 7
  %2 = load ptr, ptr %opaque, align 8
  store ptr %2, ptr %s, align 8
  %3 = load ptr, ptr %s, align 8
  %num_children = getelementptr inbounds %struct.BDRVQuorumState, ptr %3, i32 0, i32 1
  %4 = load i32, ptr %num_children, align 8
  %5 = load ptr, ptr %acb.addr, align 8
  %children_read = getelementptr inbounds %struct.QuorumAIOCB, ptr %5, i32 0, i32 13
  store i32 %4, ptr %children_read, align 8
  store i32 0, ptr %i, align 4
  br label %for.cond

for.cond:                                         ; preds = %for.inc, %entry
  %6 = load i32, ptr %i, align 4
  %7 = load ptr, ptr %s, align 8
  %num_children1 = getelementptr inbounds %struct.BDRVQuorumState, ptr %7, i32 0, i32 1
  %8 = load i32, ptr %num_children1, align 8
  %cmp = icmp slt i32 %6, %8
  br i1 %cmp, label %for.body, label %for.end

for.body:                                         ; preds = %for.cond
  %9 = load ptr, ptr %s, align 8
  %children = getelementptr inbounds %struct.BDRVQuorumState, ptr %9, i32 0, i32 0
  %10 = load ptr, ptr %children, align 8
  %11 = load i32, ptr %i, align 4
  %idxprom = sext i32 %11 to i64
  %arrayidx = getelementptr ptr, ptr %10, i64 %idxprom
  %12 = load ptr, ptr %arrayidx, align 8
  %bs2 = getelementptr inbounds %struct.BdrvChild, ptr %12, i32 0, i32 0
  %13 = load ptr, ptr %bs2, align 8
  %14 = load ptr, ptr %acb.addr, align 8
  %qiov = getelementptr inbounds %struct.QuorumAIOCB, ptr %14, i32 0, i32 5
  %15 = load ptr, ptr %qiov, align 8
  %16 = getelementptr inbounds %struct.QEMUIOVector, ptr %15, i32 0, i32 2
  %size = getelementptr inbounds %struct.anon.18, ptr %16, i32 0, i32 1
  %17 = load i64, ptr %size, align 8
  %call = call ptr @qemu_blockalign(ptr noundef %13, i64 noundef %17)
  %18 = load ptr, ptr %acb.addr, align 8
  %qcrs = getelementptr inbounds %struct.QuorumAIOCB, ptr %18, i32 0, i32 6
  %19 = load ptr, ptr %qcrs, align 8
  %20 = load i32, ptr %i, align 4
  %idxprom3 = sext i32 %20 to i64
  %arrayidx4 = getelementptr %struct.QuorumChildRequest, ptr %19, i64 %idxprom3
  %buf = getelementptr inbounds %struct.QuorumChildRequest, ptr %arrayidx4, i32 0, i32 2
  store ptr %call, ptr %buf, align 8
  %21 = load ptr, ptr %acb.addr, align 8
  %qcrs5 = getelementptr inbounds %struct.QuorumAIOCB, ptr %21, i32 0, i32 6
  %22 = load ptr, ptr %qcrs5, align 8
  %23 = load i32, ptr %i, align 4
  %idxprom6 = sext i32 %23 to i64
  %arrayidx7 = getelementptr %struct.QuorumChildRequest, ptr %22, i64 %idxprom6
  %qiov8 = getelementptr inbounds %struct.QuorumChildRequest, ptr %arrayidx7, i32 0, i32 1
  %24 = load ptr, ptr %acb.addr, align 8
  %qiov9 = getelementptr inbounds %struct.QuorumAIOCB, ptr %24, i32 0, i32 5
  %25 = load ptr, ptr %qiov9, align 8
  %niov = getelementptr inbounds %struct.QEMUIOVector, ptr %25, i32 0, i32 1
  %26 = load i32, ptr %niov, align 8
  call void @qemu_iovec_init(ptr noundef %qiov8, i32 noundef %26)
  %27 = load ptr, ptr %acb.addr, align 8
  %qcrs10 = getelementptr inbounds %struct.QuorumAIOCB, ptr %27, i32 0, i32 6
  %28 = load ptr, ptr %qcrs10, align 8
  %29 = load i32, ptr %i, align 4
  %idxprom11 = sext i32 %29 to i64
  %arrayidx12 = getelementptr %struct.QuorumChildRequest, ptr %28, i64 %idxprom11
  %qiov13 = getelementptr inbounds %struct.QuorumChildRequest, ptr %arrayidx12, i32 0, i32 1
  %30 = load ptr, ptr %acb.addr, align 8
  %qiov14 = getelementptr inbounds %struct.QuorumAIOCB, ptr %30, i32 0, i32 5
  %31 = load ptr, ptr %qiov14, align 8
  %32 = load ptr, ptr %acb.addr, align 8
  %qcrs15 = getelementptr inbounds %struct.QuorumAIOCB, ptr %32, i32 0, i32 6
  %33 = load ptr, ptr %qcrs15, align 8
  %34 = load i32, ptr %i, align 4
  %idxprom16 = sext i32 %34 to i64
  %arrayidx17 = getelementptr %struct.QuorumChildRequest, ptr %33, i64 %idxprom16
  %buf18 = getelementptr inbounds %struct.QuorumChildRequest, ptr %arrayidx17, i32 0, i32 2
  %35 = load ptr, ptr %buf18, align 8
  call void @qemu_iovec_clone(ptr noundef %qiov13, ptr noundef %31, ptr noundef %35)
  br label %for.inc

for.inc:                                          ; preds = %for.body
  %36 = load i32, ptr %i, align 4
  %inc = add i32 %36, 1
  store i32 %inc, ptr %i, align 4
  br label %for.cond, !llvm.loop !19

for.end:                                          ; preds = %for.cond
  store i32 0, ptr %i, align 4
  br label %for.cond19

for.cond19:                                       ; preds = %for.inc25, %for.end
  %37 = load i32, ptr %i, align 4
  %38 = load ptr, ptr %s, align 8
  %num_children20 = getelementptr inbounds %struct.BDRVQuorumState, ptr %38, i32 0, i32 1
  %39 = load i32, ptr %num_children20, align 8
  %cmp21 = icmp slt i32 %37, %39
  br i1 %cmp21, label %for.body22, label %for.end27

for.body22:                                       ; preds = %for.cond19
  %acb23 = getelementptr inbounds %struct.QuorumCo, ptr %data, i32 0, i32 0
  %40 = load ptr, ptr %acb.addr, align 8
  store ptr %40, ptr %acb23, align 8
  %idx = getelementptr inbounds %struct.QuorumCo, ptr %data, i32 0, i32 1
  %41 = load i32, ptr %i, align 4
  store i32 %41, ptr %idx, align 8
  %call24 = call ptr @qemu_coroutine_create(ptr noundef @read_quorum_children_entry, ptr noundef %data)
  store ptr %call24, ptr %co, align 8
  %42 = load ptr, ptr %co, align 8
  call void @qemu_coroutine_enter(ptr noundef %42)
  br label %for.inc25

for.inc25:                                        ; preds = %for.body22
  %43 = load i32, ptr %i, align 4
  %inc26 = add i32 %43, 1
  store i32 %inc26, ptr %i, align 4
  br label %for.cond19, !llvm.loop !20

for.end27:                                        ; preds = %for.cond19
  br label %while.cond

while.cond:                                       ; preds = %while.body, %for.end27
  %44 = load ptr, ptr %acb.addr, align 8
  %count = getelementptr inbounds %struct.QuorumAIOCB, ptr %44, i32 0, i32 7
  %45 = load i32, ptr %count, align 8
  %46 = load ptr, ptr %s, align 8
  %num_children28 = getelementptr inbounds %struct.BDRVQuorumState, ptr %46, i32 0, i32 1
  %47 = load i32, ptr %num_children28, align 8
  %cmp29 = icmp slt i32 %45, %47
  br i1 %cmp29, label %while.body, label %while.end

while.body:                                       ; preds = %while.cond
  call void @qemu_coroutine_yield()
  br label %while.cond, !llvm.loop !21

while.end:                                        ; preds = %while.cond
  %48 = load ptr, ptr %acb.addr, align 8
  call void @quorum_vote(ptr noundef %48)
  store i32 0, ptr %i, align 4
  br label %for.cond30

for.cond30:                                       ; preds = %for.inc42, %while.end
  %49 = load i32, ptr %i, align 4
  %50 = load ptr, ptr %s, align 8
  %num_children31 = getelementptr inbounds %struct.BDRVQuorumState, ptr %50, i32 0, i32 1
  %51 = load i32, ptr %num_children31, align 8
  %cmp32 = icmp slt i32 %49, %51
  br i1 %cmp32, label %for.body33, label %for.end44

for.body33:                                       ; preds = %for.cond30
  %52 = load ptr, ptr %acb.addr, align 8
  %qcrs34 = getelementptr inbounds %struct.QuorumAIOCB, ptr %52, i32 0, i32 6
  %53 = load ptr, ptr %qcrs34, align 8
  %54 = load i32, ptr %i, align 4
  %idxprom35 = sext i32 %54 to i64
  %arrayidx36 = getelementptr %struct.QuorumChildRequest, ptr %53, i64 %idxprom35
  %buf37 = getelementptr inbounds %struct.QuorumChildRequest, ptr %arrayidx36, i32 0, i32 2
  %55 = load ptr, ptr %buf37, align 8
  call void @qemu_vfree(ptr noundef %55)
  %56 = load ptr, ptr %acb.addr, align 8
  %qcrs38 = getelementptr inbounds %struct.QuorumAIOCB, ptr %56, i32 0, i32 6
  %57 = load ptr, ptr %qcrs38, align 8
  %58 = load i32, ptr %i, align 4
  %idxprom39 = sext i32 %58 to i64
  %arrayidx40 = getelementptr %struct.QuorumChildRequest, ptr %57, i64 %idxprom39
  %qiov41 = getelementptr inbounds %struct.QuorumChildRequest, ptr %arrayidx40, i32 0, i32 1
  call void @qemu_iovec_destroy(ptr noundef %qiov41)
  br label %for.inc42

for.inc42:                                        ; preds = %for.body33
  %59 = load i32, ptr %i, align 4
  %inc43 = add i32 %59, 1
  store i32 %inc43, ptr %i, align 4
  br label %for.cond30, !llvm.loop !22

for.end44:                                        ; preds = %for.cond30
  br label %while.cond45

while.cond45:                                     ; preds = %while.body46, %for.end44
  %60 = load ptr, ptr %acb.addr, align 8
  %rewrite_count = getelementptr inbounds %struct.QuorumAIOCB, ptr %60, i32 0, i32 9
  %61 = load i32, ptr %rewrite_count, align 8
  %tobool = icmp ne i32 %61, 0
  br i1 %tobool, label %while.body46, label %while.end47

while.body46:                                     ; preds = %while.cond45
  call void @qemu_coroutine_yield()
  br label %while.cond45, !llvm.loop !23

while.end47:                                      ; preds = %while.cond45
  %62 = load ptr, ptr %acb.addr, align 8
  %vote_ret = getelementptr inbounds %struct.QuorumAIOCB, ptr %62, i32 0, i32 12
  %63 = load i32, ptr %vote_ret, align 4
  ret i32 %63
}