; Function Attrs: nounwind sspstrong uwtable
define internal i32 @read_quorum_children(ptr noundef initializes((96, 100)) %acb) #0 {
entry:
  %data = alloca %struct.QuorumCo, align 8
  %0 = load ptr, ptr %acb, align 8
  %opaque = getelementptr inbounds nuw i8, ptr %0, i64 24
  %1 = load ptr, ptr %opaque, align 8
  %num_children = getelementptr inbounds nuw i8, ptr %1, i64 8
  %2 = load i32, ptr %num_children, align 8
  %children_read = getelementptr inbounds nuw i8, ptr %acb, i64 96
  store i32 %2, ptr %children_read, align 8
  %cmp34 = icmp sgt i32 %2, 0
  br i1 %cmp34, label %for.body.lr.ph, label %while.cond.preheader

for.body.lr.ph:                                   ; preds = %entry
  %qiov = getelementptr inbounds nuw i8, ptr %acb, i64 40
  %qcrs = getelementptr inbounds nuw i8, ptr %acb, i64 48
  br label %for.body

for.cond19.preheader:                             ; preds = %for.body
  %cmp2136 = icmp sgt i32 %15, 0
  br i1 %cmp2136, label %for.body22.lr.ph, label %while.cond.preheader

for.body22.lr.ph:                                 ; preds = %for.cond19.preheader
  %idx = getelementptr inbounds nuw i8, ptr %data, i64 8
  br label %for.body22

for.body:                                         ; preds = %for.body.lr.ph, %for.body
  %indvars.iv = phi i64 [ 0, %for.body.lr.ph ], [ %indvars.iv.next, %for.body ]
  %3 = load ptr, ptr %1, align 8
  %arrayidx = getelementptr ptr, ptr %3, i64 %indvars.iv
  %4 = load ptr, ptr %arrayidx, align 8
  %5 = load ptr, ptr %4, align 8
  %6 = load ptr, ptr %qiov, align 8
  %size = getelementptr inbounds nuw i8, ptr %6, i64 32
  %7 = load i64, ptr %size, align 8
  %call = tail call ptr @qemu_blockalign(ptr noundef %5, i64 noundef %7) #17
  %8 = load ptr, ptr %qcrs, align 8
  %buf = getelementptr %struct.QuorumChildRequest, ptr %8, i64 %indvars.iv, i32 2
  store ptr %call, ptr %buf, align 8
  %9 = load ptr, ptr %qcrs, align 8
  %qiov8 = getelementptr %struct.QuorumChildRequest, ptr %9, i64 %indvars.iv, i32 1
  %10 = load ptr, ptr %qiov, align 8
  %niov = getelementptr inbounds nuw i8, ptr %10, i64 8
  %11 = load i32, ptr %niov, align 8
  tail call void @qemu_iovec_init(ptr noundef %qiov8, i32 noundef %11) #17
  %12 = load ptr, ptr %qcrs, align 8
  %arrayidx12 = getelementptr %struct.QuorumChildRequest, ptr %12, i64 %indvars.iv
  %qiov13 = getelementptr inbounds nuw i8, ptr %arrayidx12, i64 8
  %13 = load ptr, ptr %qiov, align 8
  %buf18 = getelementptr inbounds nuw i8, ptr %arrayidx12, i64 48
  %14 = load ptr, ptr %buf18, align 8
  tail call void @qemu_iovec_clone(ptr noundef nonnull %qiov13, ptr noundef %13, ptr noundef %14) #17
  %indvars.iv.next = add nuw nsw i64 %indvars.iv, 1
  %15 = load i32, ptr %num_children, align 8
  %16 = sext i32 %15 to i64
  %cmp = icmp slt i64 %indvars.iv.next, %16
  br i1 %cmp, label %for.body, label %for.cond19.preheader, !llvm.loop !23

while.cond.preheader:                             ; preds = %for.body22, %entry, %for.cond19.preheader
  %17 = phi i32 [ %15, %for.cond19.preheader ], [ %2, %entry ], [ %19, %for.body22 ]
  %count = getelementptr inbounds nuw i8, ptr %acb, i64 56
  %18 = load i32, ptr %count, align 8
  %cmp2938 = icmp slt i32 %18, %17
  br i1 %cmp2938, label %while.body, label %while.end

for.body22:                                       ; preds = %for.body22.lr.ph, %for.body22
  %i.137 = phi i32 [ 0, %for.body22.lr.ph ], [ %inc26, %for.body22 ]
  store ptr %acb, ptr %data, align 8
  store i32 %i.137, ptr %idx, align 8
  %call24 = call ptr @qemu_coroutine_create(ptr noundef nonnull @read_quorum_children_entry, ptr noundef nonnull %data) #17
  call void @qemu_coroutine_enter(ptr noundef %call24) #17
  %inc26 = add nuw nsw i32 %i.137, 1
  %19 = load i32, ptr %num_children, align 8
  %cmp21 = icmp slt i32 %inc26, %19
  br i1 %cmp21, label %for.body22, label %while.cond.preheader, !llvm.loop !24

while.body:                                       ; preds = %while.cond.preheader, %while.body
  call void @qemu_coroutine_yield() #17
  %20 = load i32, ptr %count, align 8
  %21 = load i32, ptr %num_children, align 8
  %cmp29 = icmp slt i32 %20, %21
  br i1 %cmp29, label %while.body, label %while.end, !llvm.loop !25

while.end:                                        ; preds = %while.body, %while.cond.preheader
  call void @quorum_vote(ptr noundef nonnull %acb)
  %22 = load i32, ptr %num_children, align 8
  %cmp3239 = icmp sgt i32 %22, 0
  br i1 %cmp3239, label %for.body33.lr.ph, label %while.cond45.preheader

for.body33.lr.ph:                                 ; preds = %while.end
  %qcrs34 = getelementptr inbounds nuw i8, ptr %acb, i64 48
  br label %for.body33

while.cond45.preheader:                           ; preds = %for.body33, %while.end
  %rewrite_count = getelementptr inbounds nuw i8, ptr %acb, i64 64
  %23 = load i32, ptr %rewrite_count, align 8
  %tobool.not41 = icmp eq i32 %23, 0
  br i1 %tobool.not41, label %while.end47, label %while.body46

for.body33:                                       ; preds = %for.body33.lr.ph, %for.body33
  %indvars.iv43 = phi i64 [ 0, %for.body33.lr.ph ], [ %indvars.iv.next44, %for.body33 ]
  %24 = load ptr, ptr %qcrs34, align 8
  %buf37 = getelementptr %struct.QuorumChildRequest, ptr %24, i64 %indvars.iv43, i32 2
  %25 = load ptr, ptr %buf37, align 8
  call void @qemu_vfree(ptr noundef %25) #17
  %26 = load ptr, ptr %qcrs34, align 8
  %qiov41 = getelementptr %struct.QuorumChildRequest, ptr %26, i64 %indvars.iv43, i32 1
  call void @qemu_iovec_destroy(ptr noundef %qiov41) #17
  %indvars.iv.next44 = add nuw nsw i64 %indvars.iv43, 1
  %27 = load i32, ptr %num_children, align 8
  %28 = sext i32 %27 to i64
  %cmp32 = icmp slt i64 %indvars.iv.next44, %28
  br i1 %cmp32, label %for.body33, label %while.cond45.preheader, !llvm.loop !26

while.body46:                                     ; preds = %while.cond45.preheader, %while.body46
  call void @qemu_coroutine_yield() #17
  %29 = load i32, ptr %rewrite_count, align 8
  %tobool.not = icmp eq i32 %29, 0
  br i1 %tobool.not, label %while.end47, label %while.body46, !llvm.loop !27

while.end47:                                      ; preds = %while.body46, %while.cond45.preheader
  %vote_ret = getelementptr inbounds nuw i8, ptr %acb, i64 92
  %30 = load i32, ptr %vote_ret, align 4
  ret i32 %30
}